target datalayout = "e-m:e-p270:32:32-p271:32:32-p272:64:64-i64:64-i128:128-f80:128-n8:16:32:64-S128"
target triple = "x86_64-pc-linux-gnu"

%class.StringArrayArgument = type { ptr }
%class.GrowableArrayView = type { %class.GrowableArrayBase, ptr }
%class.GrowableArrayBase = type { i32, i32 }

@.str.10 = private unnamed_addr constant [2 x i8] c",\00", align 1

; Function Attrs: mustprogress nounwind uwtable
define linkonce_odr hidden noundef nonnull align 8 dereferenceable(8) ptr @_ZN17GrowableArrayViewIPcE2atEi(ptr noundef nonnull align 8 dereferenceable(16) %0, i32 noundef %1) #1 comdat align 2 {
  %3 = alloca ptr, align 8
  %4 = alloca i32, align 4
  store ptr %0, ptr %3, align 8
  store i32 %1, ptr %4, align 4
  %5 = load ptr, ptr %3, align 8
  %6 = getelementptr inbounds %class.GrowableArrayView, ptr %5, i32 0, i32 1
  %7 = load ptr, ptr %6, align 8
  %8 = load i32, ptr %4, align 4
  %9 = sext i32 %8 to i64
  %10 = getelementptr inbounds ptr, ptr %7, i64 %9
  ret ptr %10
}

; Function Attrs: mustprogress nounwind uwtable
define linkonce_odr hidden noundef i32 @_ZNK17GrowableArrayBase6lengthEv(ptr noundef nonnull align 4 dereferenceable(8) %0) #1 comdat align 2 {
  %2 = alloca ptr, align 8
  store ptr %0, ptr %2, align 8
  %3 = load ptr, ptr %2, align 8
  %4 = getelementptr inbounds %class.GrowableArrayBase, ptr %3, i32 0, i32 0
  %5 = load i32, ptr %4, align 4
  ret i32 %5
}

; Function Attrs: mustprogress nounwind uwtable
define linkonce_odr hidden noundef ptr @_ZN19StringArrayArgument5arrayEv(ptr noundef nonnull align 8 dereferenceable(8) %0) #1 comdat align 2 {
  %2 = alloca ptr, align 8
  store ptr %0, ptr %2, align 8
  %3 = load ptr, ptr %2, align 8
  %4 = getelementptr inbounds %class.StringArrayArgument, ptr %3, i32 0, i32 0
  %5 = load ptr, ptr %4, align 8
  ret ptr %5
}

; Function Attrs: mustprogress nounwind uwtable
define hidden void @_ZNK15GenDCmdArgument9to_stringEP19StringArrayArgumentPcm(ptr noundef nonnull align 8 dereferenceable(51) %0, ptr noundef %1, ptr noundef %2, i64 noundef %3) #1 align 2 {
  %5 = alloca ptr, align 8
  %6 = alloca ptr, align 8
  %7 = alloca ptr, align 8
  %8 = alloca i64, align 8
  %9 = alloca i32, align 4
  %10 = alloca i64, align 8
  %11 = alloca i32, align 4
  %12 = alloca ptr, align 8
  %13 = alloca i64, align 8
  store ptr %0, ptr %5, align 8
  store ptr %1, ptr %6, align 8
  store ptr %2, ptr %7, align 8
  store i64 %3, ptr %8, align 8
  %14 = load ptr, ptr %6, align 8
  %15 = call noundef ptr @_ZN19StringArrayArgument5arrayEv(ptr noundef nonnull align 8 dereferenceable(8) %14)
  %16 = call noundef i32 @_ZNK17GrowableArrayBase6lengthEv(ptr noundef nonnull align 4 dereferenceable(8) %15)
  store i32 %16, ptr %9, align 4
  store i64 0, ptr %10, align 8
  %17 = load ptr, ptr %7, align 8
  %18 = getelementptr inbounds i8, ptr %17, i64 0
  store i8 0, ptr %18, align 1
  store i32 0, ptr %11, align 4
  br label %19

19:                                               ; preds = %57, %4
  %20 = load i32, ptr %11, align 4
  %21 = load i32, ptr %9, align 4
  %22 = icmp slt i32 %20, %21
  br i1 %22, label %23, label %60

23:                                               ; preds = %19
  %24 = load ptr, ptr %6, align 8
  %25 = call noundef ptr @_ZN19StringArrayArgument5arrayEv(ptr noundef nonnull align 8 dereferenceable(8) %24)
  %26 = load i32, ptr %11, align 4
  %27 = call noundef nonnull align 8 dereferenceable(8) ptr @_ZN17GrowableArrayViewIPcE2atEi(ptr noundef nonnull align 8 dereferenceable(16) %25, i32 noundef %26)
  %28 = load ptr, ptr %27, align 8
  store ptr %28, ptr %12, align 8
  %29 = load ptr, ptr %12, align 8
  %30 = call i64 @strlen(ptr noundef %29) #8
  store i64 %30, ptr %13, align 8
  %31 = load i64, ptr %10, align 8
  %32 = load i64, ptr %13, align 8
  %33 = add i64 %31, %32
  %34 = load i64, ptr %8, align 8
  %35 = icmp ugt i64 %33, %34
  br i1 %35, label %36, label %37

36:                                               ; preds = %23
  br label %60

37:                                               ; preds = %23
  %38 = load ptr, ptr %7, align 8
  %39 = load ptr, ptr %12, align 8
  %40 = call ptr @strcat(ptr noundef %38, ptr noundef %39) #7
  %41 = load i64, ptr %13, align 8
  %42 = load i64, ptr %10, align 8
  %43 = add i64 %42, %41
  store i64 %43, ptr %10, align 8
  %44 = load i32, ptr %11, align 4
  %45 = load i32, ptr %9, align 4
  %46 = sub nsw i32 %45, 1
  %47 = icmp slt i32 %44, %46
  br i1 %47, label %48, label %56

48:                                               ; preds = %37
  %49 = load i64, ptr %8, align 8
  %50 = load i64, ptr %10, align 8
  %51 = sub i64 %49, %50
  %52 = icmp ugt i64 %51, 0
  br i1 %52, label %53, label %56

53:                                               ; preds = %48
  %54 = load ptr, ptr %7, align 8
  %55 = call ptr @strcat(ptr noundef %54, ptr noundef @.str.10) #7
  br label %56

56:                                               ; preds = %53, %48, %37
  br label %57

57:                                               ; preds = %56
  %58 = load i32, ptr %11, align 4
  %59 = add nsw i32 %58, 1
  store i32 %59, ptr %11, align 4
  br label %19, !llvm.loop !8

60:                                               ; preds = %36, %19
  ret void
}