; Function Attrs: mustprogress nofree nounwind memory(readwrite, inaccessiblemem: none) uwtable
define hidden void @_ZNK15GenDCmdArgument9to_stringEP19StringArrayArgumentPcm(ptr nocapture noundef nonnull readnone align 8 dereferenceable(51) %0, ptr nocapture noundef readonly %1, ptr noundef %2, i64 noundef %3) local_unnamed_addr #4 align 2 {
  %5 = load ptr, ptr %1, align 8
  %6 = load i32, ptr %5, align 4
  store i8 0, ptr %2, align 1
  %7 = icmp sgt i32 %6, 0
  br i1 %7, label %.lr.ph, label %._crit_edge

.lr.ph:                                           ; preds = %4
  %8 = add nsw i32 %6, -1
  %9 = zext nneg i32 %8 to i64
  %wide.trip.count = zext nneg i32 %6 to i64
  br label %10

10:                                               ; preds = %.lr.ph, %23
  %indvars.iv = phi i64 [ 0, %.lr.ph ], [ %indvars.iv.next, %23 ]
  %.024 = phi i64 [ 0, %.lr.ph ], [ %17, %23 ]
  %11 = load ptr, ptr %1, align 8
  %12 = getelementptr inbounds i8, ptr %11, i64 8
  %13 = load ptr, ptr %12, align 8
  %14 = getelementptr inbounds ptr, ptr %13, i64 %indvars.iv
  %15 = load ptr, ptr %14, align 8
  %16 = tail call i64 @strlen(ptr noundef nonnull dereferenceable(1) %15) #16
  %17 = add i64 %16, %.024
  %18 = icmp ugt i64 %17, %3
  br i1 %18, label %._crit_edge, label %19

19:                                               ; preds = %10
  %20 = tail call ptr @strcat(ptr noundef nonnull dereferenceable(1) %2, ptr noundef nonnull dereferenceable(1) %15) #15
  %21 = icmp uge i64 %indvars.iv, %9
  %.not = icmp eq i64 %17, %3
  %or.cond = or i1 %21, %.not
  br i1 %or.cond, label %23, label %22

22:                                               ; preds = %19
  %strlen = tail call i64 @strlen(ptr nonnull dereferenceable(1) %2)
  %endptr = getelementptr inbounds i8, ptr %2, i64 %strlen
  store i16 44, ptr %endptr, align 1
  br label %23

23:                                               ; preds = %19, %22
  %indvars.iv.next = add nuw nsw i64 %indvars.iv, 1
  %exitcond.not = icmp eq i64 %indvars.iv.next, %wide.trip.count
  br i1 %exitcond.not, label %._crit_edge, label %10, !llvm.loop !8

._crit_edge:                                      ; preds = %23, %10, %4
  ret void
}